target datalayout = "e-m:e-p270:32:32-p271:32:32-p272:64:64-i64:64-i128:128-f80:128-n8:16:32:64-S128"
target triple = "x86_64-pc-linux-gnu"

%struct.anon.0 = type { ptr, ptr, i32, i32, i32, i32, ptr, i64, i64, i64, i32, ptr, i32, i32, i32, i32, i32, ptr, i32, i32, ptr, ptr, i32, i64, i64, ptr, ptr, ptr, ptr, i32, ptr, ptr, ptr, i32, i32, ptr, i64, i64, i32, i32, ptr, ptr, i32, ptr }
%struct.SDL_VideoDevice = type { ptr, ptr, ptr, ptr, ptr, ptr, ptr, ptr, ptr, ptr, ptr, ptr, ptr, ptr, ptr, ptr, ptr, ptr, ptr, ptr, ptr, ptr, ptr, ptr, ptr, ptr, ptr, ptr, ptr, ptr, ptr, ptr, ptr, ptr, ptr, ptr, ptr, ptr, ptr, ptr, ptr, ptr, ptr, ptr, ptr, ptr, ptr, ptr, ptr, ptr, ptr, ptr, ptr, ptr, ptr, ptr, ptr, ptr, ptr, ptr, ptr, ptr, ptr, ptr, ptr, ptr, ptr, ptr, ptr, ptr, ptr, ptr, ptr, ptr, ptr, ptr, ptr, ptr, ptr, ptr, ptr, ptr, ptr, ptr, ptr, ptr, ptr, ptr, ptr, ptr, ptr, ptr, ptr, ptr, ptr, ptr, ptr, i64, i8, i8, i8, ptr, i32, ptr, %struct.SDL_Rect, ptr, ptr, i32, ptr, ptr, ptr, ptr, i64, ptr, i8, i32, i32, %struct.anon.1, ptr, ptr, ptr, ptr, ptr, ptr, %struct.SDL_AtomicInt, %struct.SDL_AtomicInt, i8, %struct.anon.2, ptr, ptr, ptr, ptr, ptr }
%struct.SDL_Rect = type { i32, i32, i32, i32 }
%struct.anon.1 = type { i32, i32, i32, i32, i32, i32, i32, i32, i32, i32, i32, i32, i32, i32, i32, i32, i32, i32, i32, i32, i32, i32, i32, i32, i32, i32, i32, i32, i32, [256 x i8], ptr }
%struct.SDL_AtomicInt = type { i32 }
%struct.anon.2 = type { ptr, ptr, i32, [256 x i8], ptr }
%struct.SDL_VideoDisplay = type { i32, ptr, i32, i32, ptr, %struct.SDL_DisplayMode, ptr, i32, i32, float, %struct.SDL_HDROutputProperties, i8, ptr, ptr, i32, ptr }
%struct.SDL_DisplayMode = type { i32, i32, i32, i32, float, float, i32, i32, ptr }
%struct.SDL_HDROutputProperties = type { float, float }
%struct.SDL_DisplayData = type { i32, ptr, i32, i32, i32, i32, i64, i8, i64, [16 x i8] }
%struct.SDL_VideoData = type { ptr, ptr, i32, ptr, i64, i32, ptr, i32, i64, i64, %struct.X11_ClipboardData, %struct.X11_ClipboardData, ptr, i64, %struct.X11_SettingsData, i8, %struct.anon.3, [256 x i32], i8, i8, i8, i64, i8, %struct.SDL_Point, i32, ptr, i32, i8, i32, %struct.anon.4, i8, i64, ptr, ptr, i8, i8, i8 }
%struct.X11_ClipboardData = type { ptr, ptr, ptr, i64, i32 }
%struct.X11_SettingsData = type { ptr }
%struct.anon.3 = type { i64, i64, i64, i64, i64, i64, i64, i64, i64, i64, i64, i64, i64, i64, i64, i64, i64, i64, i64, i64, i64, i64, i64, i64, i64, i64, i64, i64, i64, i64, i64, i64, i64, i64, i64, i64, i64, i64, i64, i64, i64, i64, i64, i64, i64, i64, i64, i64, i64, i64, i64, i64, i64 }
%struct.SDL_Point = type { i32, i32 }
%struct.anon.4 = type { ptr, i32, i32, i32, i16, i32, i32 }
%struct.Screen = type { ptr, ptr, i64, i32, i32, i32, i32, i32, ptr, i32, ptr, ptr, i64, i64, i64, i32, i32, i32, i32, i64 }

@X11_XFree = external global ptr, align 8
@X11_XInternAtom = external global ptr, align 8
@.str.4 = private unnamed_addr constant [14 x i8] c"_NET_WORKAREA\00", align 1
@X11_XGetWindowProperty = external global ptr, align 8

; Function Attrs: nounwind uwtable
define hidden zeroext i1 @X11_GetDisplayBounds(ptr noundef %0, ptr noundef %1, ptr noundef %2) #0 {
  %4 = alloca ptr, align 8
  %5 = alloca ptr, align 8
  %6 = alloca ptr, align 8
  %7 = alloca ptr, align 8
  store ptr %0, ptr %4, align 8
  store ptr %1, ptr %5, align 8
  store ptr %2, ptr %6, align 8
  call void @llvm.lifetime.start.p0(i64 8, ptr %7) #6
  %8 = load ptr, ptr %5, align 8
  %9 = getelementptr inbounds nuw %struct.SDL_VideoDisplay, ptr %8, i32 0, i32 15
  %10 = load ptr, ptr %9, align 8
  store ptr %10, ptr %7, align 8
  %11 = load ptr, ptr %7, align 8
  %12 = getelementptr inbounds nuw %struct.SDL_DisplayData, ptr %11, i32 0, i32 4
  %13 = load i32, ptr %12, align 8
  %14 = load ptr, ptr %6, align 8
  %15 = getelementptr inbounds nuw %struct.SDL_Rect, ptr %14, i32 0, i32 0
  store i32 %13, ptr %15, align 4
  %16 = load ptr, ptr %7, align 8
  %17 = getelementptr inbounds nuw %struct.SDL_DisplayData, ptr %16, i32 0, i32 5
  %18 = load i32, ptr %17, align 4
  %19 = load ptr, ptr %6, align 8
  %20 = getelementptr inbounds nuw %struct.SDL_Rect, ptr %19, i32 0, i32 1
  store i32 %18, ptr %20, align 4
  %21 = load ptr, ptr %5, align 8
  %22 = getelementptr inbounds nuw %struct.SDL_VideoDisplay, ptr %21, i32 0, i32 6
  %23 = load ptr, ptr %22, align 8
  %24 = getelementptr inbounds nuw %struct.SDL_DisplayMode, ptr %23, i32 0, i32 2
  %25 = load i32, ptr %24, align 8
  %26 = load ptr, ptr %6, align 8
  %27 = getelementptr inbounds nuw %struct.SDL_Rect, ptr %26, i32 0, i32 2
  store i32 %25, ptr %27, align 4
  %28 = load ptr, ptr %5, align 8
  %29 = getelementptr inbounds nuw %struct.SDL_VideoDisplay, ptr %28, i32 0, i32 6
  %30 = load ptr, ptr %29, align 8
  %31 = getelementptr inbounds nuw %struct.SDL_DisplayMode, ptr %30, i32 0, i32 3
  %32 = load i32, ptr %31, align 4
  %33 = load ptr, ptr %6, align 8
  %34 = getelementptr inbounds nuw %struct.SDL_Rect, ptr %33, i32 0, i32 3
  store i32 %32, ptr %34, align 4
  call void @llvm.lifetime.end.p0(i64 8, ptr %7) #6
  ret i1 true
}

; Function Attrs: nounwind uwtable
define hidden zeroext i1 @X11_GetDisplayUsableBounds(ptr noundef %0, ptr noundef %1, ptr noundef %2) #0 {
  %4 = alloca i1, align 1
  %5 = alloca ptr, align 8
  %6 = alloca ptr, align 8
  %7 = alloca ptr, align 8
  %8 = alloca ptr, align 8
  %9 = alloca ptr, align 8
  %10 = alloca i64, align 8
  %11 = alloca i32, align 4
  %12 = alloca i64, align 8
  %13 = alloca i64, align 8
  %14 = alloca i64, align 8
  %15 = alloca ptr, align 8
  %16 = alloca i8, align 1
  %17 = alloca i32, align 4
  %18 = alloca i32, align 4
  %19 = alloca ptr, align 8
  %20 = alloca %struct.SDL_Rect, align 4
  store ptr %0, ptr %5, align 8
  store ptr %1, ptr %6, align 8
  store ptr %2, ptr %7, align 8
  call void @llvm.lifetime.start.p0(i64 8, ptr %8) #6
  %21 = load ptr, ptr %5, align 8
  %22 = getelementptr inbounds nuw %struct.SDL_VideoDevice, ptr %21, i32 0, i32 128
  %23 = load ptr, ptr %22, align 8
  store ptr %23, ptr %8, align 8
  call void @llvm.lifetime.start.p0(i64 8, ptr %9) #6
  %24 = load ptr, ptr %8, align 8
  %25 = getelementptr inbounds nuw %struct.SDL_VideoData, ptr %24, i32 0, i32 0
  %26 = load ptr, ptr %25, align 8
  store ptr %26, ptr %9, align 8
  call void @llvm.lifetime.start.p0(i64 8, ptr %10) #6
  call void @llvm.lifetime.start.p0(i64 4, ptr %11) #6
  call void @llvm.lifetime.start.p0(i64 8, ptr %12) #6
  call void @llvm.lifetime.start.p0(i64 8, ptr %13) #6
  store i64 0, ptr %13, align 8
  call void @llvm.lifetime.start.p0(i64 8, ptr %14) #6
  store i64 0, ptr %14, align 8
  call void @llvm.lifetime.start.p0(i64 8, ptr %15) #6
  store ptr null, ptr %15, align 8
  call void @llvm.lifetime.start.p0(i64 1, ptr %16) #6
  store i8 0, ptr %16, align 1
  %27 = load ptr, ptr %5, align 8
  %28 = load ptr, ptr %6, align 8
  %29 = load ptr, ptr %7, align 8
  %30 = call zeroext i1 @X11_GetDisplayBounds(ptr noundef %27, ptr noundef %28, ptr noundef %29)
  br i1 %30, label %32, label %31

31:                                               ; preds = %3
  store i1 false, ptr %4, align 1
  store i32 1, ptr %17, align 4
  br label %93

32:                                               ; preds = %3
  %33 = load ptr, ptr @X11_XInternAtom, align 8
  %34 = load ptr, ptr %9, align 8
  %35 = call i64 %33(ptr noundef %34, ptr noundef @.str.4, i32 noundef 0)
  store i64 %35, ptr %10, align 8
  call void @llvm.lifetime.start.p0(i64 4, ptr %18) #6
  %36 = load ptr, ptr @X11_XGetWindowProperty, align 8
  %37 = load ptr, ptr %9, align 8
  %38 = load ptr, ptr %9, align 8
  %39 = getelementptr inbounds nuw %struct.anon.0, ptr %38, i32 0, i32 35
  %40 = load ptr, ptr %39, align 8
  %41 = load ptr, ptr %9, align 8
  %42 = getelementptr inbounds nuw %struct.anon.0, ptr %41, i32 0, i32 33
  %43 = load i32, ptr %42, align 8
  %44 = sext i32 %43 to i64
  %45 = getelementptr inbounds %struct.Screen, ptr %40, i64 %44
  %46 = getelementptr inbounds nuw %struct.Screen, ptr %45, i32 0, i32 2
  %47 = load i64, ptr %46, align 8
  %48 = load i64, ptr %10, align 8
  %49 = call i32 %36(ptr noundef %37, i64 noundef %47, i64 noundef %48, i64 noundef 0, i64 noundef 4, i32 noundef 0, i64 noundef 6, ptr noundef %12, ptr noundef %11, ptr noundef %13, ptr noundef %14, ptr noundef %15)
  store i32 %49, ptr %18, align 4
  %50 = load i32, ptr %18, align 4
  %51 = icmp eq i32 %50, 0
  br i1 %51, label %52, label %83

52:                                               ; preds = %32
  %53 = load i64, ptr %13, align 8
  %54 = icmp uge i64 %53, 4
  br i1 %54, label %55, label %83

55:                                               ; preds = %52
  call void @llvm.lifetime.start.p0(i64 8, ptr %19) #6
  %56 = load ptr, ptr %15, align 8
  store ptr %56, ptr %19, align 8
  call void @llvm.lifetime.start.p0(i64 16, ptr %20) #6
  %57 = getelementptr inbounds nuw %struct.SDL_Rect, ptr %20, i32 0, i32 0
  %58 = load ptr, ptr %19, align 8
  %59 = getelementptr inbounds i64, ptr %58, i64 0
  %60 = load i64, ptr %59, align 8
  %61 = trunc i64 %60 to i32
  store i32 %61, ptr %57, align 4
  %62 = getelementptr inbounds nuw %struct.SDL_Rect, ptr %20, i32 0, i32 1
  %63 = load ptr, ptr %19, align 8
  %64 = getelementptr inbounds i64, ptr %63, i64 1
  %65 = load i64, ptr %64, align 8
  %66 = trunc i64 %65 to i32
  store i32 %66, ptr %62, align 4
  %67 = getelementptr inbounds nuw %struct.SDL_Rect, ptr %20, i32 0, i32 2
  %68 = load ptr, ptr %19, align 8
  %69 = getelementptr inbounds i64, ptr %68, i64 2
  %70 = load i64, ptr %69, align 8
  %71 = trunc i64 %70 to i32
  store i32 %71, ptr %67, align 4
  %72 = getelementptr inbounds nuw %struct.SDL_Rect, ptr %20, i32 0, i32 3
  %73 = load ptr, ptr %19, align 8
  %74 = getelementptr inbounds i64, ptr %73, i64 3
  %75 = load i64, ptr %74, align 8
  %76 = trunc i64 %75 to i32
  store i32 %76, ptr %72, align 4
  store i8 1, ptr %16, align 1
  %77 = load ptr, ptr %7, align 8
  %78 = load ptr, ptr %7, align 8
  %79 = call zeroext i1 @SDL_GetRectIntersection_REAL(ptr noundef %77, ptr noundef %20, ptr noundef %78)
  br i1 %79, label %82, label %80

80:                                               ; preds = %55
  %81 = load ptr, ptr %7, align 8
  call void @llvm.memset.p0.i64(ptr align 4 %81, i8 0, i64 16, i1 false)
  br label %82

82:                                               ; preds = %80, %55
  call void @llvm.lifetime.end.p0(i64 16, ptr %20) #6
  call void @llvm.lifetime.end.p0(i64 8, ptr %19) #6
  br label %83

83:                                               ; preds = %82, %52, %32
  %84 = load ptr, ptr %15, align 8
  %85 = icmp ne ptr %84, null
  br i1 %85, label %86, label %90

86:                                               ; preds = %83
  %87 = load ptr, ptr @X11_XFree, align 8
  %88 = load ptr, ptr %15, align 8
  %89 = call i32 %87(ptr noundef %88)
  br label %90

90:                                               ; preds = %86, %83
  %91 = load i8, ptr %16, align 1, !range !10, !noundef !11
  %92 = trunc i8 %91 to i1
  store i1 %92, ptr %4, align 1
  store i32 1, ptr %17, align 4
  call void @llvm.lifetime.end.p0(i64 4, ptr %18) #6
  br label %93

93:                                               ; preds = %90, %31
  call void @llvm.lifetime.end.p0(i64 1, ptr %16) #6
  call void @llvm.lifetime.end.p0(i64 8, ptr %15) #6
  call void @llvm.lifetime.end.p0(i64 8, ptr %14) #6
  call void @llvm.lifetime.end.p0(i64 8, ptr %13) #6
  call void @llvm.lifetime.end.p0(i64 8, ptr %12) #6
  call void @llvm.lifetime.end.p0(i64 4, ptr %11) #6
  call void @llvm.lifetime.end.p0(i64 8, ptr %10) #6
  call void @llvm.lifetime.end.p0(i64 8, ptr %9) #6
  call void @llvm.lifetime.end.p0(i64 8, ptr %8) #6
  %94 = load i1, ptr %4, align 1
  ret i1 %94
}