; Function Attrs: nounwind uwtable
define hidden noundef zeroext i1 @X11_GetDisplayUsableBounds(ptr noundef readonly captures(none) %0, ptr noundef readonly captures(none) %1, ptr noundef initializes((0, 16)) %2) local_unnamed_addr #0 {
  %4 = alloca i32, align 4
  %5 = alloca i64, align 8
  %6 = alloca i64, align 8
  %7 = alloca i64, align 8
  %8 = alloca ptr, align 8
  %9 = alloca %struct.SDL_Rect, align 4
  %10 = getelementptr inbounds nuw i8, ptr %0, i64 1656
  %11 = load ptr, ptr %10, align 8
  %12 = load ptr, ptr %11, align 8
  call void @llvm.lifetime.start.p0(i64 4, ptr nonnull %4) #8
  call void @llvm.lifetime.start.p0(i64 8, ptr nonnull %5) #8
  call void @llvm.lifetime.start.p0(i64 8, ptr nonnull %6) #8
  store i64 0, ptr %6, align 8
  call void @llvm.lifetime.start.p0(i64 8, ptr nonnull %7) #8
  store i64 0, ptr %7, align 8
  call void @llvm.lifetime.start.p0(i64 8, ptr nonnull %8) #8
  store ptr null, ptr %8, align 8
  %13 = getelementptr inbounds nuw i8, ptr %1, i64 128
  %14 = load ptr, ptr %13, align 8
  %15 = getelementptr inbounds nuw i8, ptr %14, i64 24
  %16 = load i32, ptr %15, align 8
  store i32 %16, ptr %2, align 4
  %17 = getelementptr inbounds nuw i8, ptr %14, i64 28
  %18 = load i32, ptr %17, align 4
  %19 = getelementptr inbounds nuw i8, ptr %2, i64 4
  store i32 %18, ptr %19, align 4
  %20 = getelementptr inbounds nuw i8, ptr %1, i64 72
  %21 = load ptr, ptr %20, align 8
  %22 = getelementptr inbounds nuw i8, ptr %21, i64 8
  %23 = load i32, ptr %22, align 8
  %24 = getelementptr inbounds nuw i8, ptr %2, i64 8
  store i32 %23, ptr %24, align 4
  %25 = load ptr, ptr %20, align 8
  %26 = getelementptr inbounds nuw i8, ptr %25, i64 12
  %27 = load i32, ptr %26, align 4
  %28 = getelementptr inbounds nuw i8, ptr %2, i64 12
  store i32 %27, ptr %28, align 4
  %29 = load ptr, ptr @X11_XInternAtom, align 8
  %30 = tail call i64 %29(ptr noundef %12, ptr noundef nonnull @.str.4, i32 noundef 0) #8
  %31 = load ptr, ptr @X11_XGetWindowProperty, align 8
  %32 = getelementptr inbounds nuw i8, ptr %12, i64 232
  %33 = load ptr, ptr %32, align 8
  %34 = getelementptr inbounds nuw i8, ptr %12, i64 224
  %35 = load i32, ptr %34, align 8
  %36 = sext i32 %35 to i64
  %37 = getelementptr inbounds %struct.Screen, ptr %33, i64 %36, i32 2
  %38 = load i64, ptr %37, align 8
  %39 = call i32 %31(ptr noundef %12, i64 noundef %38, i64 noundef %30, i64 noundef 0, i64 noundef 4, i32 noundef 0, i64 noundef 6, ptr noundef nonnull %5, ptr noundef nonnull %4, ptr noundef nonnull %6, ptr noundef nonnull %7, ptr noundef nonnull %8) #8
  %40 = icmp eq i32 %39, 0
  %41 = load i64, ptr %6, align 8
  %42 = icmp ugt i64 %41, 3
  %or.cond = select i1 %40, i1 %42, i1 false
  br i1 %or.cond, label %43, label %62

43:                                               ; preds = %3
  %44 = load ptr, ptr %8, align 8
  call void @llvm.lifetime.start.p0(i64 16, ptr nonnull %9) #8
  %45 = load i64, ptr %44, align 8
  %46 = trunc i64 %45 to i32
  store i32 %46, ptr %9, align 4
  %47 = getelementptr inbounds nuw i8, ptr %9, i64 4
  %48 = getelementptr inbounds nuw i8, ptr %44, i64 8
  %49 = load i64, ptr %48, align 8
  %50 = trunc i64 %49 to i32
  store i32 %50, ptr %47, align 4
  %51 = getelementptr inbounds nuw i8, ptr %9, i64 8
  %52 = getelementptr inbounds nuw i8, ptr %44, i64 16
  %53 = load i64, ptr %52, align 8
  %54 = trunc i64 %53 to i32
  store i32 %54, ptr %51, align 4
  %55 = getelementptr inbounds nuw i8, ptr %9, i64 12
  %56 = getelementptr inbounds nuw i8, ptr %44, i64 24
  %57 = load i64, ptr %56, align 8
  %58 = trunc i64 %57 to i32
  store i32 %58, ptr %55, align 4
  %59 = call zeroext i1 @SDL_GetRectIntersection_REAL(ptr noundef nonnull %2, ptr noundef nonnull %9, ptr noundef nonnull %2) #8
  br i1 %59, label %61, label %60

60:                                               ; preds = %43
  call void @llvm.memset.p0.i64(ptr noundef nonnull align 4 dereferenceable(16) %2, i8 0, i64 16, i1 false)
  br label %61

61:                                               ; preds = %60, %43
  call void @llvm.lifetime.end.p0(i64 16, ptr nonnull %9) #8
  br label %62

62:                                               ; preds = %61, %3
  %63 = load ptr, ptr %8, align 8
  %.not = icmp eq ptr %63, null
  br i1 %.not, label %67, label %64

64:                                               ; preds = %62
  %65 = load ptr, ptr @X11_XFree, align 8
  %66 = call i32 %65(ptr noundef nonnull %63) #8
  br label %67

67:                                               ; preds = %62, %64
  call void @llvm.lifetime.end.p0(i64 8, ptr nonnull %8) #8
  call void @llvm.lifetime.end.p0(i64 8, ptr nonnull %7) #8
  call void @llvm.lifetime.end.p0(i64 8, ptr nonnull %6) #8
  call void @llvm.lifetime.end.p0(i64 8, ptr nonnull %5) #8
  call void @llvm.lifetime.end.p0(i64 4, ptr nonnull %4) #8
  ret i1 %or.cond
}